; Function Attrs: mustprogress uwtable
define hidden noundef ptr @_Z25mk_ackermannize_bv_tacticR11ast_managerRK10params_ref(ptr noundef nonnull align 8 dereferenceable(976) %m, ptr noundef nonnull align 8 dereferenceable(8) %p) local_unnamed_addr #3 personality ptr @__gxx_personality_v0 {
entry:
  %call = tail call noalias noundef ptr @_ZN6memory8allocateEm(i64 noundef 48)
  %m_ref_count.i.i = getelementptr inbounds i8, ptr %call, i64 8
  store i32 0, ptr %m_ref_count.i.i, align 8
  store ptr getelementptr inbounds ({ [25 x ptr] }, ptr @_ZTV22ackermannize_bv_tactic, i64 0, i32 0, i64 2), ptr %call, align 8
  %m2.i = getelementptr inbounds i8, ptr %call, i64 16
  store ptr %m, ptr %m2.i, align 8
  %m_p.i = getelementptr inbounds i8, ptr %call, i64 24
  tail call void @_ZN10params_refC1ERKS_(ptr noundef nonnull align 8 dereferenceable(8) %m_p.i, ptr noundef nonnull align 8 dereferenceable(8) %p)
  %m_st.i = getelementptr inbounds i8, ptr %call, i64 32
  store i32 0, ptr %m_st.i, align 4
  %m_ackrs_sz.i.i = getelementptr inbounds i8, ptr %call, i64 36
  store i32 0, ptr %m_ackrs_sz.i.i, align 4
  %vtable.i = load ptr, ptr %call, align 8
  %vfn.i = getelementptr inbounds i8, ptr %vtable.i, i64 96
  %0 = load ptr, ptr %vfn.i, align 8
  invoke void %0(ptr noundef nonnull align 8 dereferenceable(48) %call, ptr noundef nonnull align 8 dereferenceable(8) %p)
          to label %_ZN22ackermannize_bv_tacticC2ER11ast_managerRK10params_ref.exit unwind label %lpad3.i

lpad3.i:                                          ; preds = %entry
  %1 = landingpad { ptr, i32 }
          cleanup
  tail call void @_ZN10params_refD1Ev(ptr noundef nonnull align 8 dereferenceable(8) %m_p.i) #12
  resume { ptr, i32 } %1

_ZN22ackermannize_bv_tacticC2ER11ast_managerRK10params_ref.exit: ; preds = %entry
  ret ptr %call
}